target datalayout = "e-m:e-p270:32:32-p271:32:32-p272:64:64-i64:64-i128:128-f80:128-n8:16:32:64-S128"
target triple = "x86_64-pc-linux-gnu"

%struct._packet_info = type { ptr, ptr, i32, i32, %struct.nstime_t, %struct.nstime_t, %struct.nstime_t, i8, ptr, ptr, ptr, ptr, %struct._address, %struct._address, %struct._address, %struct._address, %struct._address, %struct._address, i32, ptr, i8, [3 x i8], %struct.anon, i32, i32, i32, i32, ptr, i8, ptr, ptr, i16, i16, i32, i32, i16, i32, i32, ptr, ptr, ptr, i8, i8, i16, i16, i16, i32, i16, i16, ptr, ptr, ptr, ptr, ptr, i32, i32 }
%struct.nstime_t = type { i64, i32 }
%struct._address = type { i32, i32, ptr, ptr }
%struct.anon = type { i8, [3 x i8] }
%struct._proto_node = type { ptr, ptr, ptr, ptr, ptr, ptr, ptr }
%struct.field_info = type { ptr, i32, i32, i32, i32, i32, i32, ptr, ptr, ptr, i32, i32 }

@hf_dlep_dataitem_status = internal global i32 0, align 4
@hf_dlep_dataitem_status_code = internal global i32 0, align 4
@hf_dlep_dataitem_status_text = internal global i32 0, align 4
@.str.200 = private unnamed_addr constant [8 x i8] c"Unknown\00", align 1
@.str.205 = private unnamed_addr constant [16 x i8] c", Code: %s (%u)\00", align 1
@.str.206 = private unnamed_addr constant [11 x i8] c", Text: %s\00", align 1

; Function Attrs: inlinehint nounwind null_pointer_is_valid sspstrong uwtable
define internal void @proto_item_set_hidden(ptr noundef %0) #3 {
  %2 = alloca ptr, align 8
  store ptr %0, ptr %2, align 8
  %3 = load ptr, ptr %2, align 8
  %4 = icmp ne ptr %3, null
  br i1 %4, label %5, label %24

5:                                                ; preds = %1
  br label %6

6:                                                ; preds = %5
  %7 = load ptr, ptr %2, align 8
  %8 = getelementptr inbounds nuw %struct._proto_node, ptr %7, i32 0, i32 5
  %9 = load ptr, ptr %8, align 8
  %10 = icmp ne ptr %9, null
  br i1 %10, label %11, label %22

11:                                               ; preds = %6
  %12 = load ptr, ptr %2, align 8
  %13 = getelementptr inbounds nuw %struct._proto_node, ptr %12, i32 0, i32 5
  %14 = load ptr, ptr %13, align 8
  %15 = getelementptr inbounds nuw %struct.field_info, ptr %14, i32 0, i32 6
  %16 = load i32, ptr %15, align 4
  %17 = or i32 %16, 1
  %18 = load ptr, ptr %2, align 8
  %19 = getelementptr inbounds nuw %struct._proto_node, ptr %18, i32 0, i32 5
  %20 = load ptr, ptr %19, align 8
  %21 = getelementptr inbounds nuw %struct.field_info, ptr %20, i32 0, i32 6
  store i32 %17, ptr %21, align 4
  br label %22

22:                                               ; preds = %11, %6
  br label %23

23:                                               ; preds = %22
  br label %24

24:                                               ; preds = %23, %1
  ret void
}

; Function Attrs: null_pointer_is_valid sspstrong uwtable
define internal i32 @decode_dataitem_status(ptr noundef %0, ptr noundef %1, ptr noundef %2, ptr noundef %3) #0 {
  %5 = alloca i32, align 4
  %6 = alloca ptr, align 8
  %7 = alloca ptr, align 8
  %8 = alloca ptr, align 8
  %9 = alloca ptr, align 8
  %10 = alloca ptr, align 8
  %11 = alloca i32, align 4
  %12 = alloca i32, align 4
  %13 = alloca ptr, align 8
  %14 = alloca i32, align 4
  %15 = alloca i32, align 4
  store ptr %0, ptr %6, align 8
  store ptr %1, ptr %7, align 8
  store ptr %2, ptr %8, align 8
  store ptr %3, ptr %9, align 8
  call void @llvm.lifetime.start.p0(i64 8, ptr %10) #6
  %16 = load ptr, ptr %8, align 8
  %17 = call ptr @proto_tree_get_parent(ptr noundef %16)
  store ptr %17, ptr %10, align 8
  call void @llvm.lifetime.start.p0(i64 4, ptr %11) #6
  %18 = load ptr, ptr %6, align 8
  %19 = call i32 @tvb_captured_length(ptr noundef %18)
  store i32 %19, ptr %11, align 4
  call void @llvm.lifetime.start.p0(i64 4, ptr %12) #6
  store i32 0, ptr %12, align 4
  call void @llvm.lifetime.start.p0(i64 8, ptr %13) #6
  store ptr null, ptr %13, align 8
  call void @llvm.lifetime.start.p0(i64 4, ptr %14) #6
  %20 = load ptr, ptr %8, align 8
  %21 = load i32, ptr @hf_dlep_dataitem_status, align 4
  %22 = load ptr, ptr %6, align 8
  %23 = load i32, ptr %12, align 4
  %24 = load i32, ptr %11, align 4
  %25 = call ptr @proto_tree_add_item(ptr noundef %20, i32 noundef %21, ptr noundef %22, i32 noundef %23, i32 noundef %24, i32 noundef 0)
  store ptr %25, ptr %13, align 8
  %26 = load ptr, ptr %13, align 8
  call void @proto_item_set_hidden(ptr noundef %26)
  %27 = load i32, ptr %11, align 4
  %28 = icmp slt i32 %27, 1
  br i1 %28, label %29, label %31

29:                                               ; preds = %4
  %30 = load i32, ptr %12, align 4
  store i32 %30, ptr %5, align 4
  store i32 1, ptr %15, align 4
  br label %64

31:                                               ; preds = %4
  %32 = load ptr, ptr %8, align 8
  %33 = load i32, ptr @hf_dlep_dataitem_status_code, align 4
  %34 = load ptr, ptr %6, align 8
  %35 = load i32, ptr %12, align 4
  %36 = call ptr @proto_tree_add_item_ret_uint(ptr noundef %32, i32 noundef %33, ptr noundef %34, i32 noundef %35, i32 noundef 1, i32 noundef 0, ptr noundef %14)
  %37 = load ptr, ptr %10, align 8
  %38 = load i32, ptr %14, align 4
  %39 = call ptr @val_to_str_const(i32 noundef %38, ptr noundef @status_code_vals, ptr noundef @.str.200)
  %40 = load i32, ptr %14, align 4
  call void (ptr, ptr, ...) @proto_item_append_text(ptr noundef %37, ptr noundef @.str.205, ptr noundef %39, i32 noundef %40)
  %41 = load i32, ptr %12, align 4
  %42 = add i32 %41, 1
  store i32 %42, ptr %12, align 4
  %43 = load ptr, ptr %8, align 8
  %44 = load i32, ptr @hf_dlep_dataitem_status_text, align 4
  %45 = load ptr, ptr %6, align 8
  %46 = load i32, ptr %12, align 4
  %47 = load i32, ptr %11, align 4
  %48 = sub i32 %47, 1
  %49 = call ptr @proto_tree_add_item(ptr noundef %43, i32 noundef %44, ptr noundef %45, i32 noundef %46, i32 noundef %48, i32 noundef 2)
  %50 = load ptr, ptr %10, align 8
  %51 = load ptr, ptr %7, align 8
  %52 = getelementptr inbounds nuw %struct._packet_info, ptr %51, i32 0, i32 51
  %53 = load ptr, ptr %52, align 8
  %54 = load ptr, ptr %6, align 8
  %55 = load i32, ptr %12, align 4
  %56 = load i32, ptr %11, align 4
  %57 = sub i32 %56, 1
  %58 = call ptr @tvb_get_string_enc(ptr noundef %53, ptr noundef %54, i32 noundef %55, i32 noundef %57, i32 noundef 2)
  call void (ptr, ptr, ...) @proto_item_append_text(ptr noundef %50, ptr noundef @.str.206, ptr noundef %58)
  %59 = load i32, ptr %11, align 4
  %60 = sub i32 %59, 1
  %61 = load i32, ptr %12, align 4
  %62 = add i32 %61, %60
  store i32 %62, ptr %12, align 4
  %63 = load i32, ptr %12, align 4
  store i32 %63, ptr %5, align 4
  store i32 1, ptr %15, align 4
  br label %64

64:                                               ; preds = %31, %29
  call void @llvm.lifetime.end.p0(i64 4, ptr %14) #6
  call void @llvm.lifetime.end.p0(i64 8, ptr %13) #6
  call void @llvm.lifetime.end.p0(i64 4, ptr %12) #6
  call void @llvm.lifetime.end.p0(i64 4, ptr %11) #6
  call void @llvm.lifetime.end.p0(i64 8, ptr %10) #6
  %65 = load i32, ptr %5, align 4
  ret i32 %65
}