; Function Attrs: null_pointer_is_valid sspstrong uwtable
define internal range(i32 0, -2147483648) i32 @decode_dataitem_status(ptr noundef %0, ptr noundef readonly captures(none) %1, ptr noundef %2, ptr readnone captures(none) %3) #0 {
  %5 = alloca i32, align 4
  %6 = tail call ptr @proto_tree_get_parent(ptr noundef %2)
  %7 = tail call i32 @tvb_captured_length(ptr noundef %0)
  call void @llvm.lifetime.start.p0(i64 4, ptr nonnull %5) #5
  %8 = load i32, ptr @hf_dlep_dataitem_status, align 4
  %9 = tail call ptr @proto_tree_add_item(ptr noundef %2, i32 noundef %8, ptr noundef %0, i32 noundef 0, i32 noundef %7, i32 noundef 0)
  %.not.i = icmp eq ptr %9, null
  br i1 %.not.i, label %proto_item_set_hidden.exit, label %10

10:                                               ; preds = %4
  %11 = getelementptr inbounds nuw i8, ptr %9, i64 40
  %12 = load ptr, ptr %11, align 8
  %.not5.i = icmp eq ptr %12, null
  br i1 %.not5.i, label %proto_item_set_hidden.exit, label %13

13:                                               ; preds = %10
  %14 = getelementptr inbounds nuw i8, ptr %12, i64 28
  %15 = load i32, ptr %14, align 4
  %16 = or i32 %15, 1
  store i32 %16, ptr %14, align 4
  br label %proto_item_set_hidden.exit

proto_item_set_hidden.exit:                       ; preds = %4, %10, %13
  %17 = icmp slt i32 %7, 1
  br i1 %17, label %30, label %18

18:                                               ; preds = %proto_item_set_hidden.exit
  %19 = load i32, ptr @hf_dlep_dataitem_status_code, align 4
  %20 = call ptr @proto_tree_add_item_ret_uint(ptr noundef %2, i32 noundef %19, ptr noundef %0, i32 noundef 0, i32 noundef 1, i32 noundef 0, ptr noundef nonnull %5)
  %21 = load i32, ptr %5, align 4
  %22 = call ptr @val_to_str_const(i32 noundef %21, ptr noundef nonnull @status_code_vals, ptr noundef nonnull @.str.200)
  %23 = load i32, ptr %5, align 4
  call void (ptr, ptr, ...) @proto_item_append_text(ptr noundef %6, ptr noundef nonnull @.str.205, ptr noundef %22, i32 noundef %23)
  %24 = load i32, ptr @hf_dlep_dataitem_status_text, align 4
  %25 = add nsw i32 %7, -1
  %26 = call ptr @proto_tree_add_item(ptr noundef %2, i32 noundef %24, ptr noundef %0, i32 noundef 1, i32 noundef %25, i32 noundef 2)
  %27 = getelementptr inbounds nuw i8, ptr %1, i64 408
  %28 = load ptr, ptr %27, align 8
  %29 = call ptr @tvb_get_string_enc(ptr noundef %28, ptr noundef %0, i32 noundef 1, i32 noundef %25, i32 noundef 2)
  call void (ptr, ptr, ...) @proto_item_append_text(ptr noundef %6, ptr noundef nonnull @.str.206, ptr noundef %29)
  br label %30

30:                                               ; preds = %proto_item_set_hidden.exit, %18
  %.0 = phi i32 [ %7, %18 ], [ 0, %proto_item_set_hidden.exit ]
  call void @llvm.lifetime.end.p0(i64 4, ptr nonnull %5) #5
  ret i32 %.0
}